; Function Attrs: mustprogress nofree norecurse nosync nounwind willreturn memory(readwrite, inaccessiblemem: none) uwtable
define internal noundef ptr @paramspec_reduce(ptr noundef readonly captures(none) %0, ptr readnone captures(none) %1) #3 {
  %3 = getelementptr i8, ptr %0, i64 16
  %.val = load ptr, ptr %3, align 8, !tbaa !126
  %4 = load i32, ptr %.val, align 8, !tbaa !27
  %5 = icmp slt i32 %4, 0
  br i1 %5, label %paramspec_reduce_impl.exit, label %6

6:                                                ; preds = %2
  %7 = add nuw i32 %4, 1
  store i32 %7, ptr %.val, align 8, !tbaa !27
  br label %paramspec_reduce_impl.exit

paramspec_reduce_impl.exit:                       ; preds = %2, %6
  ret ptr %.val
}